; Function Attrs: mustprogress uwtable
define void @Java_sun_jvm_hotspot_debugger_linux_LinuxDebuggerLocal_detach0(ptr noundef %0, ptr noundef %1) local_unnamed_addr #0 {
  %3 = load ptr, ptr @_ZL18p_ps_prochandle_ID, align 8
  %4 = load ptr, ptr %0, align 8
  %5 = getelementptr inbounds i8, ptr %4, i64 808
  %6 = load ptr, ptr %5, align 8
  %7 = tail call noundef i64 %6(ptr noundef nonnull %0, ptr noundef %1, ptr noundef %3)
  %.not = icmp eq i64 %7, 0
  br i1 %.not, label %10, label %8

8:                                                ; preds = %2
  %9 = inttoptr i64 %7 to ptr
  tail call void @Prelease(ptr noundef nonnull %9)
  br label %10

10:                                               ; preds = %8, %2
  %11 = load ptr, ptr @_ZL9saaltroot, align 8
  %.not5 = icmp eq ptr %11, null
  br i1 %.not5, label %13, label %12

12:                                               ; preds = %10
  tail call void @free(ptr noundef nonnull %11) #13
  store ptr null, ptr @_ZL9saaltroot, align 8
  br label %13

13:                                               ; preds = %12, %10
  ret void
}